Certificate:
    Data:
        Version: 3 (0x2)
        Serial Number: 1 (0x1)
        Signature Algorithm: sha1WithRSAEncryption
        Issuer: C=FR, ST=Radius, L=Somewhere, O=Example Inc./emailAddress=admin@example.com, CN=Example Certificate Authority
        Validity
            Not Before: Jan 31 23:34:11 2012 GMT
            Not After : Mar 31 23:34:11 2012 GMT
        Subject: C=FR, ST=Radius, O=Example Inc., CN=Example Server Certificate/emailAddress=admin@example.com
        Subject Public Key Info:
            Public Key Algorithm: rsaEncryption
                Public-Key: (2048 bit)
                Modulus:
                    00:97:f3:be:78:be:ce:d4:13:54:c2:4a:d4:80:51:
                    8b:57:88:84:a1:9f:bb:fc:12:f1:fc:98:59:4b:c1:
                    19:62:73:90:90:74:50:12:4a:cf:e4:ec:de:32:d9:
                    a3:ec:37:0f:9a:e1:bf:3f:53:12:47:5b:a1:41:16:
                    06:92:8d:59:16:3f:f8:fa:0d:6d:5e:99:91:ba:15:
                    d3:11:fd:de:a7:4b:37:e3:31:00:a7:35:ff:8f:ad:
                    ff:e3:7d:d2:e6:5f:26:e4:97:40:53:54:7f:76:df:
                    16:cb:0f:4f:04:ec:fe:fd:03:f0:2a:57:06:2b:d1:
                    a2:cb:e1:8e:ff:7e:a8:2e:c7:80:36:76:1f:ff:5d:
                    62:8e:a0:7c:b1:34:9c:72:01:f9:62:dd:1e:3c:77:
                    6f:45:75:6d:2a:a1:16:c7:23:af:f3:88:da:3c:88:
                    14:b4:01:5b:52:d2:b9:15:d3:59:f8:b2:e3:c4:be:
                    39:9f:57:08:74:74:f1:11:85:d1:4f:cf:eb:74:4f:
                    6d:f0:5a:81:00:00:11:76:5c:72:7b:3e:46:8b:84:
                    b8:c6:59:ac:93:b1:49:c7:de:86:b0:35:5a:34:99:
                    a7:1b:46:f4:39:c3:d1:68:74:5d:40:42:d2:ea:18:
                    c2:ac:7f:97:39:07:27:9b:9d:3a:16:c1:eb:24:cb:
                    d0:cd
                Exponent: 65537 (0x10001)
        X509v3 extensions:
            X509v3 Extended Key Usage: 
                TLS Web Server Authentication
    Signature Algorithm: sha1WithRSAEncryption
        20:4f:8f:99:52:e4:29:8d:19:2e:3d:e9:96:ce:23:a7:f4:72:
        69:7c:21:d0:44:96:9a:d2:31:53:33:6d:3d:42:c5:da:db:e9:
        d5:da:f6:64:b6:1b:fd:c2:3d:d9:d9:e6:3a:c5:ad:6d:62:77:
        2e:ce:b2:f9:ba:9c:46:27:87:3d:c5:19:92:4b:61:b6:0b:d5:
        cb:29:5e:3c:f5:15:73:32:93:8f:4c:77:a3:50:8c:8b:88:96:
        80:44:67:07:a0:70:5c:0d:e5:8c:33:31:0f:6b:99:05:d9:4a:
        7d:5a:31:21:80:59:7e:88:4f:97:93:58:82:a4:8e:28:11:21:
        56:35:a6:ac:5f:e2:ae:be:75:7d:2c:12:db:1f:57:93:b8:13:
        ba:ba:08:e5:ba:02:ee:60:58:44:9a:46:0d:80:da:6f:91:eb:
        52:be:ff:29:65:fe:1b:a4:ac:cb:e3:6a:59:0d:a9:54:de:8b:
        a3:a5:26:7c:f7:30:34:f9:97:52:09:07:fe:b2:4b:2d:af:13:
        0a:3d:e5:18:5a:5d:66:07:d6:31:ee:bb:82:b9:f0:1b:9b:0d:
        a4:3b:2d:98:03:d6:91:92:27:20:c2:58:19:5f:b0:25:cc:53:
        dd:11:b2:98:b2:51:20:89:8a:db:03:27:ff:c0:7e:f3:dc:01:
        a4:60:5c:d0
-----BEGIN CERTIFICATE-----
MIIDojCCAoqgAwIBAgIBATANBgkqhkiG9w0BAQUFADCBkzELMAkGA1UEBhMCRlIx
DzANBgNVBAgTBlJhZGl1czESMBAGA1UEBxMJU29tZXdoZXJlMRUwEwYDVQQKEwxF
eGFtcGxlIEluYy4xIDAeBgkqhkiG9w0BCQEWEWFkbWluQGV4YW1wbGUuY29tMSYw
JAYDVQQDEx1FeGFtcGxlIENlcnRpZmljYXRlIEF1dGhvcml0eTAeFw0xMjAxMzEy
MzM0MTFaFw0xMjAzMzEyMzM0MTFaMHwxCzAJBgNVBAYTAkZSMQ8wDQYDVQQIEwZS
YWRpdXMxFTATBgNVBAoTDEV4YW1wbGUgSW5jLjEjMCEGA1UEAxMaRXhhbXBsZSBT
ZXJ2ZXIgQ2VydGlmaWNhdGUxIDAeBgkqhkiG9w0BCQEWEWFkbWluQGV4YW1wbGUu
Y29tMIIBIjANBgkqhkiG9w0BAQEFAAOCAQ8AMIIBCgKCAQEAl/O+eL7O1BNUwkrU
gFGLV4iEoZ+7/BLx/JhZS8EZYnOQkHRQEkrP5OzeMtmj7DcPmuG/P1MSR1uhQRYG
ko1ZFj/4+g1tXpmRuhXTEf3ep0s34zEApzX/j63/433S5l8m5JdAU1R/dt8Wyw9P
BOz+/QPwKlcGK9Giy+GO/36oLseANnYf/11ijqB8sTSccgH5Yt0ePHdvRXVtKqEW
xyOv84jaPIgUtAFbUtK5FdNZ+LLjxL45n1cIdHTxEYXRT8/rdE9t8FqBAAARdlxy
ez5Gi4S4xlmsk7FJx96GsDVaNJmnG0b0OcPRaHRdQELS6hjCrH+XOQcnm506FsHr
JMvQzQIDAQABoxcwFTATBgNVHSUEDDAKBggrBgEFBQcDATANBgkqhkiG9w0BAQUF
AAOCAQEAIE+PmVLkKY0ZLj3pls4jp/RyaXwh0ESWmtIxUzNtPULF2tvp1dr2ZLYb
/cI92dnmOsWtbWJ3Ls6y+bqcRieHPcUZkkthtgvVyylePPUVczKTj0x3o1CMi4iW
gERnB6BwXA3ljDMxD2uZBdlKfVoxIYBZfohPl5NYgqSOKBEhVjWmrF/irr51fSwS
2x9Xk7gTuroI5boC7mBYRJpGDYDab5HrUr7/KWX+G6Ssy+NqWQ2pVN6Lo6UmfPcw
NPmXUgkH/rJLLa8TCj3lGFpdZgfWMe67grnwG5sNpDstmAPWkZInIMJYGV+wJcxT
3RGymLJRIImK2wMn/8B+89wBpGBc0A==
-----END CERTIFICATE-----
